; Function Attrs: mustprogress nofree norecurse nosync nounwind memory(readwrite, inaccessiblemem: none) uwtable
define hidden noundef zeroext i1 @_ZN4cvc58internal6theory11quantifiers21EnumStreamPermutation16PermutationState18getNextPermutationEv(ptr nocapture noundef nonnull align 8 dereferenceable(76) %this) local_unnamed_addr #6 align 2 {
entry:
  %d_curr_ind = getelementptr inbounds i8, ptr %this, i64 72
  %_M_finish.i = getelementptr inbounds i8, ptr %this, i64 8
  %0 = load i32, ptr %d_curr_ind, align 8
  %conv14 = zext i32 %0 to i64
  %1 = load ptr, ptr %_M_finish.i, align 8
  %2 = load ptr, ptr %this, align 8
  %sub.ptr.lhs.cast.i15 = ptrtoint ptr %1 to i64
  %sub.ptr.rhs.cast.i16 = ptrtoint ptr %2 to i64
  %sub.ptr.sub.i17 = sub i64 %sub.ptr.lhs.cast.i15, %sub.ptr.rhs.cast.i16
  %sub.ptr.div.i18 = ashr exact i64 %sub.ptr.sub.i17, 3
  %cmp20 = icmp eq i64 %sub.ptr.div.i18, %conv14
  br i1 %cmp20, label %return, label %if.end.lr.ph

if.end.lr.ph:                                     ; preds = %entry
  %d_seq = getelementptr inbounds i8, ptr %this, i64 48
  br label %if.end

if.end:                                           ; preds = %if.end.lr.ph, %if.then10
  %conv21 = phi i64 [ %conv14, %if.end.lr.ph ], [ %conv, %if.then10 ]
  %3 = phi i32 [ %0, %if.end.lr.ph ], [ %inc, %if.then10 ]
  %4 = load ptr, ptr %d_seq, align 8
  %add.ptr.i3 = getelementptr inbounds i32, ptr %4, i64 %conv21
  %5 = load i32, ptr %add.ptr.i3, align 4
  %cmp9.not = icmp ult i32 %5, %3
  br i1 %cmp9.not, label %if.end17, label %if.then10

if.then10:                                        ; preds = %if.end
  store i32 0, ptr %add.ptr.i3, align 4
  %6 = load i32, ptr %d_curr_ind, align 8
  %inc = add i32 %6, 1
  store i32 %inc, ptr %d_curr_ind, align 8
  %conv = zext i32 %inc to i64
  %7 = load ptr, ptr %_M_finish.i, align 8
  %8 = load ptr, ptr %this, align 8
  %sub.ptr.lhs.cast.i = ptrtoint ptr %7 to i64
  %sub.ptr.rhs.cast.i = ptrtoint ptr %8 to i64
  %sub.ptr.sub.i = sub i64 %sub.ptr.lhs.cast.i, %sub.ptr.rhs.cast.i
  %sub.ptr.div.i = ashr exact i64 %sub.ptr.sub.i, 3
  %cmp = icmp eq i64 %sub.ptr.div.i, %conv
  br i1 %cmp, label %return, label %if.end

if.end17:                                         ; preds = %if.end
  %rem = and i32 %3, 1
  %cmp19 = icmp eq i32 %rem, 0
  %d_last_perm = getelementptr inbounds i8, ptr %this, i64 24
  %9 = load ptr, ptr %d_last_perm, align 8
  %narrow = select i1 %cmp19, i32 0, i32 %5
  %add.ptr.i7.sink32.idx = zext i32 %narrow to i64
  %add.ptr.i7.sink32 = getelementptr inbounds i32, ptr %9, i64 %add.ptr.i7.sink32.idx
  %add.ptr.i8 = getelementptr inbounds i32, ptr %9, i64 %conv21
  %10 = load i32, ptr %add.ptr.i7.sink32, align 4
  %11 = load i32, ptr %add.ptr.i8, align 4
  store i32 %11, ptr %add.ptr.i7.sink32, align 4
  store i32 %10, ptr %add.ptr.i8, align 4
  %12 = load i32, ptr %d_curr_ind, align 8
  %conv40 = zext i32 %12 to i64
  %13 = load ptr, ptr %d_seq, align 8
  %add.ptr.i9 = getelementptr inbounds i32, ptr %13, i64 %conv40
  %14 = load i32, ptr %add.ptr.i9, align 4
  %add = add i32 %14, 1
  store i32 %add, ptr %add.ptr.i9, align 4
  store i32 0, ptr %d_curr_ind, align 8
  br label %return

return:                                           ; preds = %if.then10, %entry, %if.end17
  %retval.0 = phi i1 [ true, %if.end17 ], [ false, %entry ], [ false, %if.then10 ]
  ret i1 %retval.0
}